; ModuleID = '12/985.c'
source_filename = "12/985.c"
target datalayout = "e-m:e-p270:32:32-p271:32:32-p272:64:64-i64:64-f80:128-n8:16:32:64-S128"
target triple = "x86_64-pc-linux-gnu"

@.str = private unnamed_addr constant [3 x i8] c"%d\00", align 1
@.str.1 = private unnamed_addr constant [4 x i8] c"%d\0A\00", align 1

; Function Attrs: noinline nounwind uwtable
define dso_local i32 @main() #0 {
  %1 = alloca i32, align 4
  %2 = alloca [16 x i32], align 16
  %3 = alloca [100 x i32], align 16
  %4 = alloca i32, align 4
  %5 = alloca i32, align 4
  %6 = alloca i32, align 4
  %7 = alloca i32, align 4
  %8 = alloca i32, align 4
  store i32 0, i32* %1, align 4
  store i32 0, i32* %7, align 4
  store i32 0, i32* %8, align 4
  br label %9

9:                                                ; preds = %0, %99
  store i32 1, i32* %4, align 4
  br label %10

10:                                               ; preds = %17, %9
  %11 = load i32, i32* %4, align 4
  %12 = icmp slt i32 %11, 16
  br i1 %12, label %13, label %20

13:                                               ; preds = %10
  %14 = load i32, i32* %4, align 4
  %15 = sext i32 %14 to i64
  %16 = getelementptr inbounds [16 x i32], [16 x i32]* %2, i64 0, i64 %15
  store i32 0, i32* %16, align 4
  br label %17

17:                                               ; preds = %13
  %18 = load i32, i32* %4, align 4
  %19 = add nsw i32 %18, 1
  store i32 %19, i32* %4, align 4
  br label %10

20:                                               ; preds = %10
  %21 = getelementptr inbounds [16 x i32], [16 x i32]* %2, i64 0, i64 0
  %22 = call i32 (i8*, ...) @__isoc99_scanf(i8* getelementptr inbounds ([3 x i8], [3 x i8]* @.str, i64 0, i64 0), i32* %21)
  %23 = getelementptr inbounds [16 x i32], [16 x i32]* %2, i64 0, i64 0
  %24 = load i32, i32* %23, align 16
  %25 = icmp eq i32 %24, -1
  br i1 %25, label %26, label %27

26:                                               ; preds = %20
  br label %100

27:                                               ; preds = %20
  store i32 1, i32* %6, align 4
  store i32 1, i32* %4, align 4
  br label %28

28:                                               ; preds = %46, %27
  %29 = load i32, i32* %4, align 4
  %30 = icmp slt i32 %29, 16
  br i1 %30, label %31, label %49

31:                                               ; preds = %28
  %32 = load i32, i32* %4, align 4
  %33 = sext i32 %32 to i64
  %34 = getelementptr inbounds [16 x i32], [16 x i32]* %2, i64 0, i64 %33
  %35 = call i32 (i8*, ...) @__isoc99_scanf(i8* getelementptr inbounds ([3 x i8], [3 x i8]* @.str, i64 0, i64 0), i32* %34)
  %36 = load i32, i32* %4, align 4
  %37 = sext i32 %36 to i64
  %38 = getelementptr inbounds [16 x i32], [16 x i32]* %2, i64 0, i64 %37
  %39 = load i32, i32* %38, align 4
  %40 = icmp eq i32 %39, 0
  br i1 %40, label %41, label %42

41:                                               ; preds = %31
  br label %49

42:                                               ; preds = %31
  %43 = load i32, i32* %6, align 4
  %44 = add nsw i32 %43, 1
  store i32 %44, i32* %6, align 4
  br label %45

45:                                               ; preds = %42
  br label %46

46:                                               ; preds = %45
  %47 = load i32, i32* %4, align 4
  %48 = add nsw i32 %47, 1
  store i32 %48, i32* %4, align 4
  br label %28

49:                                               ; preds = %41, %28
  store i32 0, i32* %7, align 4
  store i32 1, i32* %4, align 4
  br label %50

50:                                               ; preds = %89, %49
  %51 = load i32, i32* %4, align 4
  %52 = load i32, i32* %6, align 4
  %53 = icmp slt i32 %51, %52
  br i1 %53, label %54, label %92

54:                                               ; preds = %50
  store i32 0, i32* %5, align 4
  br label %55

55:                                               ; preds = %85, %54
  %56 = load i32, i32* %5, align 4
  %57 = load i32, i32* %4, align 4
  %58 = icmp slt i32 %56, %57
  br i1 %58, label %59, label %88

59:                                               ; preds = %55
  %60 = load i32, i32* %4, align 4
  %61 = sext i32 %60 to i64
  %62 = getelementptr inbounds [16 x i32], [16 x i32]* %2, i64 0, i64 %61
  %63 = load i32, i32* %62, align 4
  %64 = load i32, i32* %5, align 4
  %65 = sext i32 %64 to i64
  %66 = getelementptr inbounds [16 x i32], [16 x i32]* %2, i64 0, i64 %65
  %67 = load i32, i32* %66, align 4
  %68 = mul nsw i32 %67, 2
  %69 = icmp eq i32 %63, %68
  br i1 %69, label %81, label %70

70:                                               ; preds = %59
  %71 = load i32, i32* %5, align 4
  %72 = sext i32 %71 to i64
  %73 = getelementptr inbounds [16 x i32], [16 x i32]* %2, i64 0, i64 %72
  %74 = load i32, i32* %73, align 4
  %75 = load i32, i32* %4, align 4
  %76 = sext i32 %75 to i64
  %77 = getelementptr inbounds [16 x i32], [16 x i32]* %2, i64 0, i64 %76
  %78 = load i32, i32* %77, align 4
  %79 = mul nsw i32 %78, 2
  %80 = icmp eq i32 %74, %79
  br i1 %80, label %81, label %84

81:                                               ; preds = %70, %59
  %82 = load i32, i32* %7, align 4
  %83 = add nsw i32 %82, 1
  store i32 %83, i32* %7, align 4
  br label %84

84:                                               ; preds = %81, %70
  br label %85

85:                                               ; preds = %84
  %86 = load i32, i32* %5, align 4
  %87 = add nsw i32 %86, 1
  store i32 %87, i32* %5, align 4
  br label %55

88:                                               ; preds = %55
  br label %89

89:                                               ; preds = %88
  %90 = load i32, i32* %4, align 4
  %91 = add nsw i32 %90, 1
  store i32 %91, i32* %4, align 4
  br label %50

92:                                               ; preds = %50
  %93 = load i32, i32* %7, align 4
  %94 = load i32, i32* %8, align 4
  %95 = sext i32 %94 to i64
  %96 = getelementptr inbounds [100 x i32], [100 x i32]* %3, i64 0, i64 %95
  store i32 %93, i32* %96, align 4
  %97 = load i32, i32* %8, align 4
  %98 = add nsw i32 %97, 1
  store i32 %98, i32* %8, align 4
  br label %99

99:                                               ; preds = %92
  br label %9

100:                                              ; preds = %26
  store i32 0, i32* %4, align 4
  br label %101

101:                                              ; preds = %111, %100
  %102 = load i32, i32* %4, align 4
  %103 = load i32, i32* %8, align 4
  %104 = icmp slt i32 %102, %103
  br i1 %104, label %105, label %114

105:                                              ; preds = %101
  %106 = load i32, i32* %4, align 4
  %107 = sext i32 %106 to i64
  %108 = getelementptr inbounds [100 x i32], [100 x i32]* %3, i64 0, i64 %107
  %109 = load i32, i32* %108, align 4
  %110 = call i32 (i8*, ...) @printf(i8* getelementptr inbounds ([4 x i8], [4 x i8]* @.str.1, i64 0, i64 0), i32 %109)
  br label %111

111:                                              ; preds = %105
  %112 = load i32, i32* %4, align 4
  %113 = add nsw i32 %112, 1
  store i32 %113, i32* %4, align 4
  br label %101

114:                                              ; preds = %101
  ret i32 0
}

declare dso_local i32 @__isoc99_scanf(i8*, ...) #1

declare dso_local i32 @printf(i8*, ...) #1


!llvm.module.flags = !{!0}
!llvm.ident = !{!1}

!0 = !{i32 1, !"wchar_size", i32 4}
!1 = !{!"clang version 10.0.0-4ubuntu1 "}
